target datalayout = "e-m:e-p270:32:32-p271:32:32-p272:64:64-i64:64-i128:128-f80:128-n8:16:32:64-S128"
target triple = "x86_64-pc-linux-gnu"

%struct.lxb_selectors_t = type { ptr, ptr, i32 }

; Function Attrs: nounwind uwtable
define hidden i32 @lxb_selectors_init(ptr noundef %0) #0 {
  %2 = alloca i32, align 4
  %3 = alloca ptr, align 8
  %4 = alloca i32, align 4
  store ptr %0, ptr %3, align 8
  %5 = load ptr, ptr %3, align 8
  %6 = icmp eq ptr %5, null
  br i1 %6, label %7, label %8

7:                                                ; preds = %1
  store i32 5, ptr %2, align 4
  br label %33

8:                                                ; preds = %1
  %9 = call ptr @lexbor_dobject_create()
  %10 = load ptr, ptr %3, align 8
  %11 = getelementptr inbounds %struct.lxb_selectors_t, ptr %10, i32 0, i32 0
  store ptr %9, ptr %11, align 8
  %12 = load ptr, ptr %3, align 8
  %13 = getelementptr inbounds %struct.lxb_selectors_t, ptr %12, i32 0, i32 0
  %14 = load ptr, ptr %13, align 8
  %15 = call i32 @lexbor_dobject_init(ptr noundef %14, i64 noundef 128, i64 noundef 48)
  store i32 %15, ptr %4, align 4
  %16 = load i32, ptr %4, align 4
  %17 = icmp ne i32 %16, 0
  br i1 %17, label %18, label %20

18:                                               ; preds = %8
  %19 = load i32, ptr %4, align 4
  store i32 %19, ptr %2, align 4
  br label %33

20:                                               ; preds = %8
  %21 = call ptr @lexbor_dobject_create()
  %22 = load ptr, ptr %3, align 8
  %23 = getelementptr inbounds %struct.lxb_selectors_t, ptr %22, i32 0, i32 1
  store ptr %21, ptr %23, align 8
  %24 = load ptr, ptr %3, align 8
  %25 = getelementptr inbounds %struct.lxb_selectors_t, ptr %24, i32 0, i32 1
  %26 = load ptr, ptr %25, align 8
  %27 = call i32 @lexbor_dobject_init(ptr noundef %26, i64 noundef 32, i64 noundef 16)
  store i32 %27, ptr %4, align 4
  %28 = load i32, ptr %4, align 4
  %29 = icmp ne i32 %28, 0
  br i1 %29, label %30, label %32

30:                                               ; preds = %20
  %31 = load i32, ptr %4, align 4
  store i32 %31, ptr %2, align 4
  br label %33

32:                                               ; preds = %20
  store i32 0, ptr %2, align 4
  br label %33

33:                                               ; preds = %32, %30, %18, %7
  %34 = load i32, ptr %2, align 4
  ret i32 %34
}