; Function Attrs: nounwind uwtable
define hidden i32 @lxb_selectors_init(ptr noundef writeonly %0) local_unnamed_addr #0 {
  %2 = icmp eq ptr %0, null
  br i1 %2, label %10, label %3

3:                                                ; preds = %1
  %4 = tail call ptr @lexbor_dobject_create() #6
  store ptr %4, ptr %0, align 8
  %5 = tail call i32 @lexbor_dobject_init(ptr noundef %4, i64 noundef 128, i64 noundef 48) #6
  %.not = icmp eq i32 %5, 0
  br i1 %.not, label %6, label %10

6:                                                ; preds = %3
  %7 = tail call ptr @lexbor_dobject_create() #6
  %8 = getelementptr inbounds i8, ptr %0, i64 8
  store ptr %7, ptr %8, align 8
  %9 = tail call i32 @lexbor_dobject_init(ptr noundef %7, i64 noundef 32, i64 noundef 16) #6
  br label %10

10:                                               ; preds = %6, %3, %1
  %.0 = phi i32 [ 5, %1 ], [ %5, %3 ], [ %9, %6 ]
  ret i32 %.0
}